target datalayout = "e-m:e-p270:32:32-p271:32:32-p272:64:64-i64:64-i128:128-f80:128-n8:16:32:64-S128"
target triple = "x86_64-pc-linux-gnu"

%struct.bin_info_s = type { i64, i64, i32, i32, %struct.bitmap_info_s }
%struct.bitmap_info_s = type { i64, i64 }
%struct.malloc_mutex_s = type { %union.anon }
%union.anon = type { %struct.anon.1 }
%struct.anon.1 = type { %struct.mutex_prof_data_t, %struct.atomic_b_t, %union.pthread_mutex_t }
%struct.mutex_prof_data_t = type { %struct.nstime_t, %struct.nstime_t, i64, i64, i32, %struct.atomic_u32_t, i64, ptr, i64 }
%struct.nstime_t = type { i64 }
%struct.atomic_u32_t = type { i32 }
%struct.atomic_b_t = type { i8 }
%union.pthread_mutex_t = type { %struct.__pthread_mutex_s }
%struct.__pthread_mutex_s = type { i32, i32, i32, i32, i32, i16, i16, %struct.__pthread_internal_list }
%struct.__pthread_internal_list = type { ptr, ptr }
%struct.atomic_zd_t = type { i64 }
%struct.hpa_shard_opts_s = type { i64, i64, i32, i8, i64, i64, i8 }
%struct.sec_opts_s = type { i64, i64, i64, i64, i64 }
%struct.arena_s = type { [2 x %struct.atomic_u_t], %struct.atomic_u_t, ptr, %struct.arena_stats_s, %struct.anon, %struct.anon.0, %struct.malloc_mutex_s, %struct.atomic_u_t, %struct.edata_list_active_t, %struct.malloc_mutex_s, %struct.pa_shard_s, i32, ptr, %struct.nstime_t, [32 x i8], [32 x i8], [0 x %struct.bin_with_batch_s] }
%struct.arena_stats_s = type { i64, i64, i64, i64, i64, i64, %struct.atomic_zu_t, i64, i64, i64, i64, i64, i64, %struct.pa_shard_stats_s, i64, i64, [12 x %struct.mutex_prof_data_t], [196 x %struct.arena_stats_large_s], %struct.nstime_t }
%struct.atomic_zu_t = type { i64 }
%struct.pa_shard_stats_s = type { i64, %struct.pac_stats_s }
%struct.pac_stats_s = type { %struct.pac_decay_stats_s, %struct.pac_decay_stats_s, i64, %struct.atomic_zu_t, %struct.atomic_zu_t }
%struct.pac_decay_stats_s = type { %struct.locked_u64_s, %struct.locked_u64_s, %struct.locked_u64_s }
%struct.locked_u64_s = type { %struct.atomic_u64_t }
%struct.atomic_u64_t = type { i64 }
%struct.arena_stats_large_s = type { %struct.locked_u64_s, %struct.locked_u64_s, %struct.locked_u64_s, %struct.locked_u64_s, %struct.locked_u64_s, i64 }
%struct.anon = type { ptr }
%struct.anon.0 = type { ptr }
%struct.atomic_u_t = type { i32 }
%struct.edata_list_active_t = type { %struct.anon.3 }
%struct.anon.3 = type { ptr }
%struct.pa_shard_s = type { ptr, %struct.atomic_zu_t, %struct.atomic_b_t, i8, %struct.pac_s, %struct.sec_s, %struct.hpa_shard_s, %struct.edata_cache_s, i32, ptr, ptr, ptr, ptr }
%struct.pac_s = type { %struct.pai_s, %struct.ecache_s, %struct.ecache_s, %struct.ecache_s, ptr, ptr, ptr, %struct.exp_grow_s, %struct.malloc_mutex_s, %struct.san_bump_alloc_s, %struct.atomic_zu_t, %struct.decay_s, %struct.decay_s, ptr, ptr, %struct.atomic_zu_t }
%struct.pai_s = type { ptr, ptr, ptr, ptr, ptr, ptr, ptr }
%struct.ecache_s = type { %struct.malloc_mutex_s, %struct.eset_s, %struct.eset_s, i32, i32, i8 }
%struct.eset_s = type { [4 x i64], [200 x %struct.eset_bin_s], [200 x %struct.eset_bin_stats_s], %struct.edata_list_inactive_t, %struct.atomic_zu_t, i32 }
%struct.eset_bin_s = type { %struct.edata_heap_t, %struct.edata_cmp_summary_s }
%struct.edata_heap_t = type { %struct.ph_s }
%struct.ph_s = type { ptr, i64 }
%struct.edata_cmp_summary_s = type { i64, i64 }
%struct.eset_bin_stats_s = type { %struct.atomic_zu_t, %struct.atomic_zu_t }
%struct.edata_list_inactive_t = type { %struct.anon.4 }
%struct.anon.4 = type { ptr }
%struct.exp_grow_s = type { i32, i32 }
%struct.san_bump_alloc_s = type { %struct.malloc_mutex_s, ptr }
%struct.decay_s = type { %struct.malloc_mutex_s, i8, %struct.atomic_zd_t, %struct.nstime_t, %struct.nstime_t, i64, %struct.nstime_t, i64, i64, [200 x i64], i64 }
%struct.sec_s = type { %struct.pai_s, ptr, %struct.sec_opts_s, ptr, i32 }
%struct.hpa_shard_s = type { %struct.pai_s, ptr, %struct.malloc_mutex_s, %struct.malloc_mutex_s, ptr, %struct.edata_cache_fast_s, %struct.psset_s, i64, i32, ptr, %struct.hpa_shard_opts_s, i64, %struct.hpa_shard_nonderived_stats_s, %struct.nstime_t }
%struct.edata_cache_fast_s = type { %struct.edata_list_inactive_t, ptr, i8 }
%struct.psset_s = type { [64 x %struct.hpdata_age_heap_t], [1 x i64], %struct.psset_bin_stats_s, %struct.psset_stats_s, %struct.hpdata_empty_list_t, [128 x %struct.hpdata_purge_list_t], [2 x i64], %struct.hpdata_hugify_list_t }
%struct.hpdata_age_heap_t = type { %struct.ph_s }
%struct.psset_bin_stats_s = type { i64, i64, i64 }
%struct.psset_stats_s = type { [64 x [2 x %struct.psset_bin_stats_s]], [2 x %struct.psset_bin_stats_s], [2 x %struct.psset_bin_stats_s] }
%struct.hpdata_empty_list_t = type { %struct.anon.5 }
%struct.anon.5 = type { ptr }
%struct.hpdata_purge_list_t = type { %struct.anon.6 }
%struct.anon.6 = type { ptr }
%struct.hpdata_hugify_list_t = type { %struct.anon.7 }
%struct.anon.7 = type { ptr }
%struct.hpa_shard_nonderived_stats_s = type { i64, i64, i64, i64 }
%struct.edata_cache_s = type { %struct.edata_avail_t, %struct.atomic_zu_t, %struct.malloc_mutex_s, ptr }
%struct.edata_avail_t = type { %struct.ph_s }
%struct.bin_with_batch_s = type { %struct.bin_s, %struct.batcher_s, [16 x %struct.bin_remote_free_data_s] }
%struct.bin_s = type { %struct.malloc_mutex_s, %struct.bin_stats_s, ptr, %struct.edata_heap_t, %struct.edata_list_active_t }
%struct.bin_stats_s = type { i64, i64, i64, i64, i64, i64, i64, i64, i64, i64, i64, i64, i64, i64 }
%struct.batcher_s = type { %struct.atomic_zu_t, i64, i64, %struct.malloc_mutex_s }
%struct.bin_remote_free_data_s = type { ptr, ptr }

@duckdb_je_bin_infos = external global [36 x %struct.bin_info_s], align 16
@duckdb_je_arena_bin_offsets = global [36 x i32] zeroinitializer, align 16
@duckdb_je_bin_info_nbatched_sizes = external global i32, align 4

; Function Attrs: inlinehint nounwind uwtable
define internal zeroext i1 @arena_bin_has_batch(i32 noundef %0) #3 {
  %2 = alloca i32, align 4
  store i32 %0, ptr %2, align 4, !tbaa !16
  %3 = load i32, ptr %2, align 4, !tbaa !16
  %4 = load i32, ptr @duckdb_je_bin_info_nbatched_sizes, align 4, !tbaa !16
  %5 = icmp ult i32 %3, %4
  ret i1 %5
}

; Function Attrs: inlinehint nounwind uwtable
define internal ptr @arena_get_bin(ptr noundef %0, i32 noundef %1, i32 noundef %2) #3 {
  %4 = alloca ptr, align 8
  %5 = alloca i32, align 4
  %6 = alloca i32, align 4
  %7 = alloca ptr, align 8
  %8 = alloca ptr, align 8
  store ptr %0, ptr %4, align 8, !tbaa !8
  store i32 %1, ptr %5, align 4, !tbaa !16
  store i32 %2, ptr %6, align 4, !tbaa !16
  call void @llvm.lifetime.start.p0(i64 8, ptr %7) #12
  %9 = load ptr, ptr %4, align 8, !tbaa !8
  %10 = load i32, ptr %5, align 4, !tbaa !16
  %11 = zext i32 %10 to i64
  %12 = getelementptr inbounds nuw [36 x i32], ptr @duckdb_je_arena_bin_offsets, i64 0, i64 %11
  %13 = load i32, ptr %12, align 4, !tbaa !16
  %14 = zext i32 %13 to i64
  %15 = getelementptr inbounds nuw i8, ptr %9, i64 %14
  store ptr %15, ptr %7, align 8, !tbaa !133
  call void @llvm.lifetime.start.p0(i64 8, ptr %8) #12
  %16 = load i32, ptr %5, align 4, !tbaa !16
  %17 = call zeroext i1 @arena_bin_has_batch(i32 noundef %16)
  br i1 %17, label %18, label %23

18:                                               ; preds = %3
  %19 = load ptr, ptr %7, align 8, !tbaa !133
  %20 = load i32, ptr %6, align 4, !tbaa !16
  %21 = zext i32 %20 to i64
  %22 = getelementptr inbounds nuw %struct.bin_with_batch_s, ptr %19, i64 %21
  store ptr %22, ptr %8, align 8, !tbaa !133
  br label %28

23:                                               ; preds = %3
  %24 = load ptr, ptr %7, align 8, !tbaa !133
  %25 = load i32, ptr %6, align 4, !tbaa !16
  %26 = zext i32 %25 to i64
  %27 = getelementptr inbounds nuw %struct.bin_s, ptr %24, i64 %26
  store ptr %27, ptr %8, align 8, !tbaa !133
  br label %28

28:                                               ; preds = %23, %18
  br label %29

29:                                               ; preds = %28
  br label %30

30:                                               ; preds = %29
  br label %31

31:                                               ; preds = %30
  %32 = load ptr, ptr %8, align 8, !tbaa !133
  call void @llvm.lifetime.end.p0(i64 8, ptr %8) #12
  call void @llvm.lifetime.end.p0(i64 8, ptr %7) #12
  ret ptr %32
}

; Function Attrs: nounwind uwtable
define void @duckdb_je_arena_postfork_parent(ptr noundef %0, ptr noundef %1) #0 {
  %3 = alloca ptr, align 8
  %4 = alloca ptr, align 8
  %5 = alloca i32, align 4
  %6 = alloca i32, align 4
  %7 = alloca i32, align 4
  %8 = alloca ptr, align 8
  store ptr %0, ptr %3, align 8, !tbaa !3
  store ptr %1, ptr %4, align 8, !tbaa !8
  call void @llvm.lifetime.start.p0(i64 4, ptr %5) #12
  store i32 0, ptr %5, align 4, !tbaa !16
  br label %9

9:                                                ; preds = %37, %2
  %10 = load i32, ptr %5, align 4, !tbaa !16
  %11 = zext i32 %10 to i64
  %12 = icmp ult i64 %11, 36
  br i1 %12, label %14, label %13

13:                                               ; preds = %9
  store i32 2, ptr %6, align 4
  call void @llvm.lifetime.end.p0(i64 4, ptr %5) #12
  br label %40

14:                                               ; preds = %9
  call void @llvm.lifetime.start.p0(i64 4, ptr %7) #12
  store i32 0, ptr %7, align 4, !tbaa !16
  br label %15

15:                                               ; preds = %33, %14
  %16 = load i32, ptr %7, align 4, !tbaa !16
  %17 = load i32, ptr %5, align 4, !tbaa !16
  %18 = zext i32 %17 to i64
  %19 = getelementptr inbounds nuw [36 x %struct.bin_info_s], ptr @duckdb_je_bin_infos, i64 0, i64 %18
  %20 = getelementptr inbounds nuw %struct.bin_info_s, ptr %19, i32 0, i32 3
  %21 = load i32, ptr %20, align 4, !tbaa !116
  %22 = icmp ult i32 %16, %21
  br i1 %22, label %24, label %23

23:                                               ; preds = %15
  store i32 5, ptr %6, align 4
  call void @llvm.lifetime.end.p0(i64 4, ptr %7) #12
  br label %36

24:                                               ; preds = %15
  call void @llvm.lifetime.start.p0(i64 8, ptr %8) #12
  %25 = load ptr, ptr %4, align 8, !tbaa !8
  %26 = load i32, ptr %5, align 4, !tbaa !16
  %27 = load i32, ptr %7, align 4, !tbaa !16
  %28 = call ptr @arena_get_bin(ptr noundef %25, i32 noundef %26, i32 noundef %27)
  store ptr %28, ptr %8, align 8, !tbaa !133
  %29 = load ptr, ptr %3, align 8, !tbaa !3
  %30 = load ptr, ptr %8, align 8, !tbaa !133
  %31 = load i32, ptr %5, align 4, !tbaa !16
  %32 = call zeroext i1 @arena_bin_has_batch(i32 noundef %31)
  call void @duckdb_je_bin_postfork_parent(ptr noundef %29, ptr noundef %30, i1 noundef zeroext %32)
  call void @llvm.lifetime.end.p0(i64 8, ptr %8) #12
  br label %33

33:                                               ; preds = %24
  %34 = load i32, ptr %7, align 4, !tbaa !16
  %35 = add i32 %34, 1
  store i32 %35, ptr %7, align 4, !tbaa !16
  br label %15

36:                                               ; preds = %23
  br label %37

37:                                               ; preds = %36
  %38 = load i32, ptr %5, align 4, !tbaa !16
  %39 = add i32 %38, 1
  store i32 %39, ptr %5, align 4, !tbaa !16
  br label %9

40:                                               ; preds = %13
  %41 = load ptr, ptr %3, align 8, !tbaa !3
  %42 = load ptr, ptr %4, align 8, !tbaa !8
  %43 = getelementptr inbounds nuw %struct.arena_s, ptr %42, i32 0, i32 9
  call void @duckdb_je_malloc_mutex_postfork_parent(ptr noundef %41, ptr noundef %43)
  %44 = load ptr, ptr %3, align 8, !tbaa !3
  %45 = load ptr, ptr %4, align 8, !tbaa !8
  %46 = getelementptr inbounds nuw %struct.arena_s, ptr %45, i32 0, i32 12
  %47 = load ptr, ptr %46, align 16, !tbaa !38
  call void @duckdb_je_base_postfork_parent(ptr noundef %44, ptr noundef %47)
  %48 = load ptr, ptr %3, align 8, !tbaa !3
  %49 = load ptr, ptr %4, align 8, !tbaa !8
  %50 = getelementptr inbounds nuw %struct.arena_s, ptr %49, i32 0, i32 10
  call void @duckdb_je_pa_shard_postfork_parent(ptr noundef %48, ptr noundef %50)
  %51 = load ptr, ptr %3, align 8, !tbaa !3
  %52 = load ptr, ptr %4, align 8, !tbaa !8
  %53 = getelementptr inbounds nuw %struct.arena_s, ptr %52, i32 0, i32 6
  call void @duckdb_je_malloc_mutex_postfork_parent(ptr noundef %51, ptr noundef %53)
  ret void
}